target datalayout = "e-m:e-p270:32:32-p271:32:32-p272:64:64-i64:64-i128:128-f80:128-n8:16:32:64-S128"
target triple = "x86_64-pc-linux-gnu"

%struct.Abc_Obj_t_ = type { ptr, ptr, i32, i32, %struct.Vec_Int_t_, %struct.Vec_Int_t_, %union.anon, %union.anon.0 }
%struct.Vec_Int_t_ = type { i32, i32, ptr }
%union.anon = type { ptr }
%union.anon.0 = type { ptr }
%struct.Abc_Ntk_t_ = type { i32, i32, ptr, ptr, ptr, ptr, ptr, ptr, ptr, ptr, ptr, ptr, ptr, [11 x i32], i32, i32, i32, i32, ptr, i32, ptr, ptr, i32, i32, i32, double, i32, %struct.Vec_Int_t_, ptr, ptr, ptr, ptr, ptr, float, i32, ptr, ptr, ptr, ptr, ptr, ptr, ptr, ptr, ptr, ptr, ptr, ptr, ptr, ptr, ptr, ptr, ptr, ptr, ptr, ptr, ptr, ptr }

; Function Attrs: inlinehint nounwind uwtable
define internal i32 @Abc_ObjIsNode(ptr noundef %0) #2 {
  %2 = alloca ptr, align 8
  store ptr %0, ptr %2, align 8, !tbaa !3
  %3 = load ptr, ptr %2, align 8, !tbaa !3
  %4 = getelementptr inbounds nuw %struct.Abc_Obj_t_, ptr %3, i32 0, i32 3
  %5 = load i32, ptr %4, align 4
  %6 = and i32 %5, 15
  %7 = icmp eq i32 %6, 7
  %8 = zext i1 %7 to i32
  ret i32 %8
}

; Function Attrs: nounwind uwtable
define void @Abc_NtkBddDecExplore(ptr noundef %0) #0 {
  %2 = alloca ptr, align 8
  %3 = alloca ptr, align 8
  %4 = alloca ptr, align 8
  %5 = alloca i32, align 4
  store ptr %0, ptr %2, align 8, !tbaa !3
  call void @llvm.lifetime.start.p0(i64 8, ptr %3) #12
  %6 = load ptr, ptr %2, align 8, !tbaa !3
  %7 = getelementptr inbounds nuw %struct.Abc_Obj_t_, ptr %6, i32 0, i32 0
  %8 = load ptr, ptr %7, align 8, !tbaa !22
  %9 = getelementptr inbounds nuw %struct.Abc_Ntk_t_, ptr %8, i32 0, i32 30
  %10 = load ptr, ptr %9, align 8, !tbaa !55
  store ptr %10, ptr %3, align 8, !tbaa !56
  call void @llvm.lifetime.start.p0(i64 8, ptr %4) #12
  %11 = load ptr, ptr %2, align 8, !tbaa !3
  %12 = getelementptr inbounds nuw %struct.Abc_Obj_t_, ptr %11, i32 0, i32 6
  %13 = load ptr, ptr %12, align 8, !tbaa !60
  store ptr %13, ptr %4, align 8, !tbaa !58
  call void @llvm.lifetime.start.p0(i64 4, ptr %5) #12
  %14 = call i32 @Abc_Random(i32 noundef 1)
  %15 = load ptr, ptr %2, align 8, !tbaa !3
  %16 = call i32 @Abc_ObjIsNode(ptr noundef %15)
  %17 = icmp ne i32 %16, 0
  br i1 %17, label %18, label %30

18:                                               ; preds = %1
  store i32 0, ptr %5, align 4, !tbaa !8
  br label %19

19:                                               ; preds = %26, %18
  %20 = load i32, ptr %5, align 4, !tbaa !8
  %21 = icmp slt i32 %20, 16
  br i1 %21, label %22, label %29

22:                                               ; preds = %19
  %23 = load ptr, ptr %3, align 8, !tbaa !56
  %24 = load ptr, ptr %4, align 8, !tbaa !58
  %25 = load i32, ptr %5, align 4, !tbaa !8
  call void @Abc_NtkBddDecExploreOne(ptr noundef %23, ptr noundef %24, i32 noundef %25)
  br label %26

26:                                               ; preds = %22
  %27 = load i32, ptr %5, align 4, !tbaa !8
  %28 = add nsw i32 %27, 1
  store i32 %28, ptr %5, align 4, !tbaa !8
  br label %19, !llvm.loop !98

29:                                               ; preds = %19
  br label %30

30:                                               ; preds = %29, %1
  call void @llvm.lifetime.end.p0(i64 4, ptr %5) #12
  call void @llvm.lifetime.end.p0(i64 8, ptr %4) #12
  call void @llvm.lifetime.end.p0(i64 8, ptr %3) #12
  ret void
}