; Function Attrs: nounwind uwtable
define void @Abc_NtkBddDecExplore(ptr noundef readonly captures(none) %0) local_unnamed_addr #0 {
  %2 = load ptr, ptr %0, align 8, !tbaa !15
  %3 = getelementptr inbounds nuw i8, ptr %2, i64 256
  %4 = load ptr, ptr %3, align 8, !tbaa !48
  %5 = getelementptr inbounds nuw i8, ptr %0, i64 56
  %6 = load ptr, ptr %5, align 8, !tbaa !50
  %7 = tail call i32 @Abc_Random(i32 noundef 1) #20
  %8 = getelementptr i8, ptr %0, i64 20
  %.val = load i32, ptr %8, align 4
  %9 = and i32 %.val, 15
  %.not = icmp eq i32 %9, 7
  br i1 %.not, label %.preheader, label %.loopexit

.preheader:                                       ; preds = %1, %.preheader
  %.07 = phi i32 [ %10, %.preheader ], [ 0, %1 ]
  tail call void @Abc_NtkBddDecExploreOne(ptr noundef %4, ptr noundef %6, i32 noundef %.07)
  %10 = add nuw nsw i32 %.07, 1
  %exitcond.not = icmp eq i32 %10, 16
  br i1 %exitcond.not, label %.loopexit, label %.preheader, !llvm.loop !87

.loopexit:                                        ; preds = %.preheader, %1
  ret void
}